target datalayout = "e-m:e-p270:32:32-p271:32:32-p272:64:64-i64:64-i128:128-f80:128-n8:16:32:64-S128"
target triple = "x86_64-pc-linux-gnu"

%struct.ident_t = type { i32, i32, i32, i32, ptr }
%class.SparseMatrix = type { i8, i32, i32, ptr, ptr }
%struct.MatrixEntry = type { i32, float }

@1 = private unnamed_addr constant %struct.ident_t { i32 0, i32 514, i32 0, i32 22, ptr @0 }, align 8
@.gomp_critical_user_.reduction.var = common global [8 x i32] zeroinitializer, align 8
@3 = private unnamed_addr constant %struct.ident_t { i32 0, i32 18, i32 0, i32 22, ptr @0 }, align 8

; Function Attrs: noreturn nounwind uwtable
define linkonce_odr hidden void @__clang_call_terminate(ptr noundef %0) #9 comdat {
  %2 = call ptr @__cxa_begin_catch(ptr %0) #3
  call void @_ZSt9terminatev() #27
  unreachable
}

; Function Attrs: mustprogress nounwind uwtable
define linkonce_odr noundef ptr @_ZN12SparseMatrixIfEixEi(ptr noundef nonnull align 8 dereferenceable(32) %0, i32 noundef %1) #4 comdat align 2 {
  %3 = alloca ptr, align 8
  %4 = alloca i32, align 4
  store ptr %0, ptr %3, align 8
  store i32 %1, ptr %4, align 4
  %5 = load ptr, ptr %3, align 8
  %6 = getelementptr inbounds %class.SparseMatrix, ptr %5, i32 0, i32 4
  %7 = load ptr, ptr %6, align 8
  %8 = load i32, ptr %4, align 4
  %9 = sext i32 %8 to i64
  %10 = getelementptr inbounds ptr, ptr %7, i64 %9
  %11 = load ptr, ptr %10, align 8
  ret ptr %11
}

; Function Attrs: norecurse nounwind uwtable
define internal void @_ZN6OctreeIfE14_solveSystemCGILi2EL12BoundaryType2E16FEMSystemFunctorILi2ELS2_2EELb0EEEiRKT1_RK11BSplineDataIXT_EXT0_EEPNS0_17InterpolationInfoIXT2_EEEiR13DenseNodeDataIfXT_EESH_SH_ibRNS0_12_SolverStatsEbd.omp_outlined.96(ptr noalias noundef %0, ptr noalias noundef %1, ptr noundef nonnull align 8 dereferenceable(32) %2, ptr noundef nonnull align 8 dereferenceable(8) %3, ptr noundef nonnull align 8 dereferenceable(8) %4, ptr noundef nonnull align 8 dereferenceable(8) %5, ptr noundef nonnull align 8 dereferenceable(8) %6) #17 personality ptr @__gxx_personality_v0 {
  %8 = alloca ptr, align 8
  %9 = alloca ptr, align 8
  %10 = alloca ptr, align 8
  %11 = alloca ptr, align 8
  %12 = alloca ptr, align 8
  %13 = alloca ptr, align 8
  %14 = alloca ptr, align 8
  %15 = alloca i32, align 4
  %16 = alloca i32, align 4
  %17 = alloca i32, align 4
  %18 = alloca i32, align 4
  %19 = alloca i32, align 4
  %20 = alloca i32, align 4
  %21 = alloca i32, align 4
  %22 = alloca i32, align 4
  %23 = alloca double, align 8
  %24 = alloca double, align 8
  %25 = alloca i32, align 4
  %26 = alloca float, align 4
  %27 = alloca ptr, align 8
  %28 = alloca ptr, align 8
  %29 = alloca ptr, align 8
  %30 = alloca [2 x ptr], align 8
  store ptr %0, ptr %8, align 8
  store ptr %1, ptr %9, align 8
  store ptr %2, ptr %10, align 8
  store ptr %3, ptr %11, align 8
  store ptr %4, ptr %12, align 8
  store ptr %5, ptr %13, align 8
  store ptr %6, ptr %14, align 8
  %31 = load ptr, ptr %10, align 8
  %32 = load ptr, ptr %11, align 8
  %33 = load ptr, ptr %12, align 8
  %34 = load ptr, ptr %13, align 8
  %35 = load ptr, ptr %14, align 8
  %36 = getelementptr inbounds %class.SparseMatrix, ptr %31, i32 0, i32 2
  %37 = load i32, ptr %36, align 8
  store i32 %37, ptr %16, align 4
  %38 = load i32, ptr %16, align 4
  %39 = sub nsw i32 %38, 0
  %40 = sdiv i32 %39, 1
  %41 = sub nsw i32 %40, 1
  store i32 %41, ptr %17, align 4
  store i32 0, ptr %18, align 4
  %42 = load i32, ptr %16, align 4
  %43 = icmp slt i32 0, %42
  br i1 %43, label %44, label %158

44:                                               ; preds = %7
  store i32 0, ptr %19, align 4
  %45 = load i32, ptr %17, align 4
  store i32 %45, ptr %20, align 4
  store i32 1, ptr %21, align 4
  store i32 0, ptr %22, align 4
  store double 0.000000e+00, ptr %23, align 8
  store double 0.000000e+00, ptr %24, align 8
  %46 = load ptr, ptr %8, align 8
  %47 = load i32, ptr %46, align 4
  call void @__kmpc_for_static_init_4(ptr @1, i32 %47, i32 34, ptr %22, ptr %19, ptr %20, ptr %21, i32 1, i32 1)
  %48 = load i32, ptr %20, align 4
  %49 = load i32, ptr %17, align 4
  %50 = icmp sgt i32 %48, %49
  br i1 %50, label %51, label %53

51:                                               ; preds = %44
  %52 = load i32, ptr %17, align 4
  br label %55

53:                                               ; preds = %44
  %54 = load i32, ptr %20, align 4
  br label %55

55:                                               ; preds = %53, %51
  %56 = phi i32 [ %52, %51 ], [ %54, %53 ]
  store i32 %56, ptr %20, align 4
  %57 = load i32, ptr %19, align 4
  store i32 %57, ptr %15, align 4
  br label %58

58:                                               ; preds = %133, %55
  %59 = load i32, ptr %15, align 4
  %60 = load i32, ptr %20, align 4
  %61 = icmp sle i32 %59, %60
  br i1 %61, label %62, label %136

62:                                               ; preds = %58
  %63 = load i32, ptr %15, align 4
  %64 = mul nsw i32 %63, 1
  %65 = add nsw i32 0, %64
  store i32 %65, ptr %25, align 4
  store float 0.000000e+00, ptr %26, align 4
  %66 = load i32, ptr %25, align 4
  %67 = invoke noundef ptr @_ZN12SparseMatrixIfEixEi(ptr noundef nonnull align 8 dereferenceable(32) %31, i32 noundef %66)
          to label %68 unwind label %159

68:                                               ; preds = %62
  store ptr %67, ptr %27, align 8
  %69 = load ptr, ptr %27, align 8
  %70 = getelementptr inbounds %class.SparseMatrix, ptr %31, i32 0, i32 3
  %71 = load ptr, ptr %70, align 8
  %72 = load i32, ptr %25, align 4
  %73 = sext i32 %72 to i64
  %74 = getelementptr inbounds i32, ptr %71, i64 %73
  %75 = load i32, ptr %74, align 4
  %76 = sext i32 %75 to i64
  %77 = getelementptr inbounds %struct.MatrixEntry, ptr %69, i64 %76
  store ptr %77, ptr %28, align 8
  %78 = load ptr, ptr %27, align 8
  store ptr %78, ptr %29, align 8
  br label %79

79:                                               ; preds = %96, %68
  %80 = load ptr, ptr %29, align 8
  %81 = load ptr, ptr %28, align 8
  %82 = icmp ne ptr %80, %81
  br i1 %82, label %83, label %99

83:                                               ; preds = %79
  %84 = load ptr, ptr %32, align 8
  %85 = load ptr, ptr %29, align 8
  %86 = getelementptr inbounds %struct.MatrixEntry, ptr %85, i32 0, i32 0
  %87 = load i32, ptr %86, align 4
  %88 = sext i32 %87 to i64
  %89 = getelementptr inbounds float, ptr %84, i64 %88
  %90 = load float, ptr %89, align 4
  %91 = load ptr, ptr %29, align 8
  %92 = getelementptr inbounds %struct.MatrixEntry, ptr %91, i32 0, i32 1
  %93 = load float, ptr %92, align 4
  %94 = load float, ptr %26, align 4
  %95 = call float @llvm.fmuladd.f32(float %90, float %93, float %94)
  store float %95, ptr %26, align 4
  br label %96

96:                                               ; preds = %83
  %97 = load ptr, ptr %29, align 8
  %98 = getelementptr inbounds %struct.MatrixEntry, ptr %97, i32 1
  store ptr %98, ptr %29, align 8
  br label %79, !llvm.loop !601

99:                                               ; preds = %79
  %100 = load ptr, ptr %34, align 8
  %101 = load i32, ptr %25, align 4
  %102 = sext i32 %101 to i64
  %103 = getelementptr inbounds float, ptr %100, i64 %102
  %104 = load float, ptr %103, align 4
  %105 = load ptr, ptr %34, align 8
  %106 = load i32, ptr %25, align 4
  %107 = sext i32 %106 to i64
  %108 = getelementptr inbounds float, ptr %105, i64 %107
  %109 = load float, ptr %108, align 4
  %110 = fmul float %104, %109
  %111 = fpext float %110 to double
  %112 = load double, ptr %23, align 8
  %113 = fadd double %112, %111
  store double %113, ptr %23, align 8
  %114 = load float, ptr %26, align 4
  %115 = load ptr, ptr %34, align 8
  %116 = load i32, ptr %25, align 4
  %117 = sext i32 %116 to i64
  %118 = getelementptr inbounds float, ptr %115, i64 %117
  %119 = load float, ptr %118, align 4
  %120 = fsub float %114, %119
  %121 = load float, ptr %26, align 4
  %122 = load ptr, ptr %34, align 8
  %123 = load i32, ptr %25, align 4
  %124 = sext i32 %123 to i64
  %125 = getelementptr inbounds float, ptr %122, i64 %124
  %126 = load float, ptr %125, align 4
  %127 = fsub float %121, %126
  %128 = fmul float %120, %127
  %129 = fpext float %128 to double
  %130 = load double, ptr %24, align 8
  %131 = fadd double %130, %129
  store double %131, ptr %24, align 8
  br label %132

132:                                              ; preds = %99
  br label %133

133:                                              ; preds = %132
  %134 = load i32, ptr %15, align 4
  %135 = add nsw i32 %134, 1
  store i32 %135, ptr %15, align 4
  br label %58

136:                                              ; preds = %58
  br label %137

137:                                              ; preds = %136
  %138 = load ptr, ptr %8, align 8
  %139 = load i32, ptr %138, align 4
  call void @__kmpc_for_static_fini(ptr @1, i32 %139)
  %140 = getelementptr inbounds [2 x ptr], ptr %30, i64 0, i64 0
  store ptr %23, ptr %140, align 8
  %141 = getelementptr inbounds [2 x ptr], ptr %30, i64 0, i64 1
  store ptr %24, ptr %141, align 8
  %142 = load ptr, ptr %8, align 8
  %143 = load i32, ptr %142, align 4
  %144 = call i32 @__kmpc_reduce_nowait(ptr @3, i32 %143, i32 2, i64 16, ptr %30, ptr @_ZN6OctreeIfE14_solveSystemCGILi2EL12BoundaryType2E16FEMSystemFunctorILi2ELS2_2EELb0EEEiRKT1_RK11BSplineDataIXT_EXT0_EEPNS0_17InterpolationInfoIXT2_EEEiR13DenseNodeDataIfXT_EESH_SH_ibRNS0_12_SolverStatsEbd.omp_outlined.96.omp.reduction.reduction_func, ptr @.gomp_critical_user_.reduction.var)
  switch i32 %144, label %157 [
    i32 1, label %145
    i32 2, label %152
  ]

145:                                              ; preds = %137
  %146 = load double, ptr %33, align 8
  %147 = load double, ptr %23, align 8
  %148 = fadd double %146, %147
  store double %148, ptr %33, align 8
  %149 = load double, ptr %35, align 8
  %150 = load double, ptr %24, align 8
  %151 = fadd double %149, %150
  store double %151, ptr %35, align 8
  call void @__kmpc_end_reduce_nowait(ptr @3, i32 %143, ptr @.gomp_critical_user_.reduction.var)
  br label %157

152:                                              ; preds = %137
  %153 = load double, ptr %23, align 8
  %154 = atomicrmw fadd ptr %33, double %153 monotonic, align 8
  %155 = load double, ptr %24, align 8
  %156 = atomicrmw fadd ptr %35, double %155 monotonic, align 8
  br label %157

157:                                              ; preds = %152, %145, %137
  br label %158

158:                                              ; preds = %157, %7
  ret void

159:                                              ; preds = %62
  %160 = landingpad { ptr, i32 }
          catch ptr null
  %161 = extractvalue { ptr, i32 } %160, 0
  call void @__clang_call_terminate(ptr %161) #27
  unreachable
}