; Function Attrs: norecurse nounwind uwtable
define internal void @_ZN6OctreeIfE14_solveSystemCGILi2EL12BoundaryType2E16FEMSystemFunctorILi2ELS2_2EELb0EEEiRKT1_RK11BSplineDataIXT_EXT0_EEPNS0_17InterpolationInfoIXT2_EEEiR13DenseNodeDataIfXT_EESH_SH_ibRNS0_12_SolverStatsEbd.omp_outlined.96(ptr noalias nocapture noundef readonly %0, ptr noalias nocapture readnone %1, ptr nocapture noundef nonnull readonly align 8 dereferenceable(32) %2, ptr nocapture noundef nonnull readonly align 8 dereferenceable(8) %3, ptr nocapture noundef nonnull align 8 dereferenceable(8) %4, ptr nocapture noundef nonnull readonly align 8 dereferenceable(8) %5, ptr nocapture noundef nonnull align 8 dereferenceable(8) %6) #23 personality ptr @__gxx_personality_v0 {
  %8 = alloca i32, align 4
  %9 = alloca i32, align 4
  %10 = alloca i32, align 4
  %11 = alloca i32, align 4
  %12 = alloca double, align 8
  %13 = alloca double, align 8
  %14 = alloca [2 x ptr], align 8
  %15 = getelementptr inbounds i8, ptr %2, i64 8
  %16 = load i32, ptr %15, align 8
  %17 = icmp sgt i32 %16, 0
  br i1 %17, label %18, label %72

18:                                               ; preds = %7
  %19 = add nsw i32 %16, -1
  store i32 0, ptr %8, align 4
  store i32 %19, ptr %9, align 4
  store i32 1, ptr %10, align 4
  store i32 0, ptr %11, align 4
  store double 0.000000e+00, ptr %12, align 8
  store double 0.000000e+00, ptr %13, align 8
  %20 = load i32, ptr %0, align 4
  call void @__kmpc_for_static_init_4(ptr nonnull @1, i32 %20, i32 34, ptr nonnull %11, ptr nonnull %8, ptr nonnull %9, ptr nonnull %10, i32 1, i32 1)
  %21 = load i32, ptr %9, align 4
  %22 = call i32 @llvm.smin.i32(i32 %21, i32 %19)
  store i32 %22, ptr %9, align 4
  %23 = load i32, ptr %8, align 4
  %.not38 = icmp sgt i32 %23, %22
  br i1 %.not38, label %._crit_edge42, label %.lr.ph41

.lr.ph41:                                         ; preds = %18
  %24 = getelementptr inbounds i8, ptr %2, i64 24
  %25 = load ptr, ptr %24, align 8
  %26 = getelementptr inbounds i8, ptr %2, i64 16
  %27 = load ptr, ptr %26, align 8
  %28 = load ptr, ptr %3, align 8
  %29 = load ptr, ptr %5, align 8
  %30 = sext i32 %23 to i64
  %31 = add nsw i32 %22, 1
  br label %32

32:                                               ; preds = %.lr.ph41, %._crit_edge
  %indvars.iv = phi i64 [ %30, %.lr.ph41 ], [ %indvars.iv.next, %._crit_edge ]
  %33 = phi <2 x double> [ zeroinitializer, %.lr.ph41 ], [ %55, %._crit_edge ]
  %34 = getelementptr inbounds ptr, ptr %25, i64 %indvars.iv
  %35 = load ptr, ptr %34, align 8
  %36 = getelementptr inbounds i32, ptr %27, i64 %indvars.iv
  %37 = load i32, ptr %36, align 4
  %38 = sext i32 %37 to i64
  %39 = getelementptr inbounds %struct.MatrixEntry, ptr %35, i64 %38
  %.not3334 = icmp eq i32 %37, 0
  br i1 %.not3334, label %._crit_edge, label %.lr.ph

.lr.ph:                                           ; preds = %32, %.lr.ph
  %.036 = phi ptr [ %47, %.lr.ph ], [ %35, %32 ]
  %.03235 = phi float [ %46, %.lr.ph ], [ 0.000000e+00, %32 ]
  %40 = load i32, ptr %.036, align 4
  %41 = sext i32 %40 to i64
  %42 = getelementptr inbounds float, ptr %28, i64 %41
  %43 = load float, ptr %42, align 4
  %44 = getelementptr inbounds i8, ptr %.036, i64 4
  %45 = load float, ptr %44, align 4
  %46 = call float @llvm.fmuladd.f32(float %43, float %45, float %.03235)
  %47 = getelementptr inbounds i8, ptr %.036, i64 8
  %.not33 = icmp eq ptr %47, %39
  br i1 %.not33, label %._crit_edge, label %.lr.ph, !llvm.loop !749

._crit_edge:                                      ; preds = %.lr.ph, %32
  %.032.lcssa = phi float [ 0.000000e+00, %32 ], [ %46, %.lr.ph ]
  %48 = getelementptr inbounds float, ptr %29, i64 %indvars.iv
  %49 = load float, ptr %48, align 4
  %50 = fsub float %.032.lcssa, %49
  %51 = insertelement <2 x float> poison, float %49, i64 0
  %52 = insertelement <2 x float> %51, float %50, i64 1
  %53 = fmul <2 x float> %52, %52
  %54 = fpext <2 x float> %53 to <2 x double>
  %55 = fadd <2 x double> %33, %54
  %56 = extractelement <2 x double> %55, i64 0
  store double %56, ptr %12, align 8
  %57 = extractelement <2 x double> %55, i64 1
  store double %57, ptr %13, align 8
  %indvars.iv.next = add nsw i64 %indvars.iv, 1
  %lftr.wideiv = trunc i64 %indvars.iv.next to i32
  %exitcond.not = icmp eq i32 %31, %lftr.wideiv
  br i1 %exitcond.not, label %._crit_edge42, label %32

._crit_edge42:                                    ; preds = %._crit_edge, %18
  call void @__kmpc_for_static_fini(ptr nonnull @1, i32 %20)
  store ptr %12, ptr %14, align 8
  %58 = getelementptr inbounds i8, ptr %14, i64 8
  store ptr %13, ptr %58, align 8
  %59 = call i32 @__kmpc_reduce_nowait(ptr nonnull @3, i32 %20, i32 2, i64 16, ptr nonnull %14, ptr nonnull @_ZN6OctreeIfE14_solveSystemCGILi2EL12BoundaryType2E16FEMSystemFunctorILi2ELS2_2EELb0EEEiRKT1_RK11BSplineDataIXT_EXT0_EEPNS0_17InterpolationInfoIXT2_EEEiR13DenseNodeDataIfXT_EESH_SH_ibRNS0_12_SolverStatsEbd.omp_outlined.96.omp.reduction.reduction_func, ptr nonnull @.gomp_critical_user_.reduction.var)
  switch i32 %59, label %72 [
    i32 1, label %60
    i32 2, label %67
  ]

60:                                               ; preds = %._crit_edge42
  %61 = load double, ptr %4, align 8
  %62 = load double, ptr %12, align 8
  %63 = fadd double %61, %62
  store double %63, ptr %4, align 8
  %64 = load double, ptr %6, align 8
  %65 = load double, ptr %13, align 8
  %66 = fadd double %64, %65
  store double %66, ptr %6, align 8
  call void @__kmpc_end_reduce_nowait(ptr nonnull @3, i32 %20, ptr nonnull @.gomp_critical_user_.reduction.var)
  br label %72

67:                                               ; preds = %._crit_edge42
  %68 = load double, ptr %12, align 8
  %69 = atomicrmw fadd ptr %4, double %68 monotonic, align 8
  %70 = load double, ptr %13, align 8
  %71 = atomicrmw fadd ptr %6, double %70 monotonic, align 8
  br label %72

72:                                               ; preds = %._crit_edge42, %60, %67, %7
  ret void
}